Certificate:
    Data:
        Version: 3 (0x2)
        Serial Number: 4096 (0x1000)
        Signature Algorithm: sha256WithRSAEncryption
        Issuer: C=US, ST=IN, L=West Lafayette, O=Purdue Univ, CN=Jevin Modi root CA
        Validity
            Not Before: Mar  1 01:24:47 2024 GMT
            Not After : Mar  1 01:24:47 2025 GMT
        Subject: C=US, ST=IN, O=Purdue Univ, CN=server Jevin Modi
        Subject Public Key Info:
            Public Key Algorithm: rsaEncryption
                Public-Key: (1024 bit)
                Modulus:
                    00:c4:ab:d7:8d:cc:01:a0:57:24:76:b8:7b:96:34:
                    81:ab:32:03:08:9e:a5:a3:91:68:d2:33:32:b4:f2:
                    80:85:ee:3a:da:bb:fd:73:8e:40:97:78:9c:2f:e9:
                    f6:e6:17:e2:4f:a6:dd:45:21:be:72:a9:6c:46:01:
                    62:87:86:3b:33:39:37:d3:ad:dc:58:45:2a:75:2b:
                    d9:c1:7f:07:aa:2e:5d:3e:da:dd:eb:89:59:1c:1d:
                    cd:1c:cd:64:49:5a:03:73:85:b9:5d:6b:87:8f:bd:
                    31:b9:42:c5:8a:25:fa:48:9d:1e:60:be:64:e3:8c:
                    ee:77:b4:fd:c3:18:b6:7d:79
                Exponent: 65537 (0x10001)
        X509v3 extensions:
            X509v3 Basic Constraints: 
                CA:FALSE
            X509v3 Subject Key Identifier: 
                71:47:48:9E:86:7A:DF:58:2F:6B:7E:76:A4:FB:F5:71:92:84:F2:1A
            X509v3 Authority Key Identifier: 
                7F:3F:B4:C4:62:3F:A5:9C:A1:1F:2B:60:C0:A6:30:C0:C5:22:06:3F
    Signature Algorithm: sha256WithRSAEncryption
    Signature Value:
        97:04:16:c7:c3:4d:95:71:41:61:82:d9:c4:70:b7:68:9f:f2:
        10:bf:f9:db:08:14:b8:35:64:4c:70:fa:0e:26:69:f4:3d:0c:
        2f:97:2d:bf:cd:9c:54:b6:e4:49:50:7e:10:e6:eb:2e:86:64:
        c1:f1:47:bb:b9:ed:5c:81:19:5c:e8:e1:f8:c7:64:93:a6:ca:
        3c:f5:33:e7:6a:0d:b4:b5:14:0d:84:94:76:3a:f9:24:8b:12:
        6d:40:eb:e1:bd:88:4a:20:ec:ee:ec:74:d5:af:fe:6b:32:00:
        a9:72:96:57:30:fa:fa:27:30:70:6d:b9:cb:d6:bd:b1:1a:65:
        65:95:25:4d:e4:21:ef:8f:e3:09:19:77:e3:21:30:f4:88:56:
        df:e7:7a:5b:89:13:7f:be:2e:4c:08:43:e4:b3:4b:99:72:72:
        99:5a:a3:c8:57:1f:44:e3:69:37:fb:be:fd:a3:c8:08:a4:fe:
        51:e4:61:14:a2:44:87:dc:3c:56:6d:18:99:f5:56:85:59:fd:
        01:7f:4d:f8:42:23:9f:dc:04:a2:12:e5:b0:4c:1a:73:30:ab:
        0b:2f:bc:0b:01:30:1b:5d:85:b3:b9:66:53:93:0b:67:90:a4:
        ff:bf:ea:14:95:90:61:06:56:0d:96:78:a4:20:34:63:c3:23:
        e2:47:5e:df
-----BEGIN CERTIFICATE-----
MIIC9zCCAd+gAwIBAgICEAAwDQYJKoZIhvcNAQELBQAwZjELMAkGA1UEBhMCVVMx
CzAJBgNVBAgMAklOMRcwFQYDVQQHDA5XZXN0IExhZmF5ZXR0ZTEUMBIGA1UECgwL
UHVyZHVlIFVuaXYxGzAZBgNVBAMMEkpldmluIE1vZGkgcm9vdCBDQTAeFw0yNDAz
MDEwMTI0NDdaFw0yNTAzMDEwMTI0NDdaMEwxCzAJBgNVBAYTAlVTMQswCQYDVQQI
DAJJTjEUMBIGA1UECgwLUHVyZHVlIFVuaXYxGjAYBgNVBAMMEXNlcnZlciBKZXZp
biBNb2RpMIGfMA0GCSqGSIb3DQEBAQUAA4GNADCBiQKBgQDEq9eNzAGgVyR2uHuW
NIGrMgMInqWjkWjSMzK08oCF7jrau/1zjkCXeJwv6fbmF+JPpt1FIb5yqWxGAWKH
hjszOTfTrdxYRSp1K9nBfweqLl0+2t3riVkcHc0czWRJWgNzhblda4ePvTG5QsWK
JfpInR5gvmTjjO53tP3DGLZ9eQIDAQABo00wSzAJBgNVHRMEAjAAMB0GA1UdDgQW
BBRxR0iehnrfWC9rfnak+/VxkoTyGjAfBgNVHSMEGDAWgBR/P7TEYj+lnKEfK2DA
pjDAxSIGPzANBgkqhkiG9w0BAQsFAAOCAQEAlwQWx8NNlXFBYYLZxHC3aJ/yEL/5
2wgUuDVkTHD6DiZp9D0ML5ctv82cVLbkSVB+EObrLoZkwfFHu7ntXIEZXOjh+Mdk
k6bKPPUz52oNtLUUDYSUdjr5JIsSbUDr4b2ISiDs7ux01a/+azIAqXKWVzD6+icw
cG25y9a9sRplZZUlTeQh74/jCRl34yEw9IhW3+d6W4kTf74uTAhD5LNLmXJymVqj
yFcfRONpN/u+/aPICKT+UeRhFKJEh9w8Vm0YmfVWhVn9AX9N+EIjn9wEohLlsEwa
czCrCy+8CwEwG12Fs7lmU5MLZ5Ck/7/qFJWQYQZWDZZ4pCA0Y8Mj4kde3w==
-----END CERTIFICATE-----
